target datalayout = "e-m:e-p270:32:32-p271:32:32-p272:64:64-i64:64-i128:128-f80:128-n8:16:32:64-S128"
target triple = "x86_64-pc-linux-gnu"

; Function Attrs: nounwind uwtable
define signext i8 @uriHexToLetterExA(i32 noundef %0, i32 noundef %1) #0 {
  %3 = alloca i8, align 1
  %4 = alloca i32, align 4
  %5 = alloca i32, align 4
  store i32 %0, ptr %4, align 4, !tbaa !14
  store i32 %1, ptr %5, align 4, !tbaa !14
  %6 = load i32, ptr %4, align 4, !tbaa !14
  switch i32 %6, label %42 [
    i32 0, label %7
    i32 1, label %8
    i32 2, label %9
    i32 3, label %10
    i32 4, label %11
    i32 5, label %12
    i32 6, label %13
    i32 7, label %14
    i32 8, label %15
    i32 9, label %16
    i32 10, label %17
    i32 11, label %22
    i32 12, label %27
    i32 13, label %32
    i32 14, label %37
  ]

7:                                                ; preds = %2
  store i8 48, ptr %3, align 1
  br label %47

8:                                                ; preds = %2
  store i8 49, ptr %3, align 1
  br label %47

9:                                                ; preds = %2
  store i8 50, ptr %3, align 1
  br label %47

10:                                               ; preds = %2
  store i8 51, ptr %3, align 1
  br label %47

11:                                               ; preds = %2
  store i8 52, ptr %3, align 1
  br label %47

12:                                               ; preds = %2
  store i8 53, ptr %3, align 1
  br label %47

13:                                               ; preds = %2
  store i8 54, ptr %3, align 1
  br label %47

14:                                               ; preds = %2
  store i8 55, ptr %3, align 1
  br label %47

15:                                               ; preds = %2
  store i8 56, ptr %3, align 1
  br label %47

16:                                               ; preds = %2
  store i8 57, ptr %3, align 1
  br label %47

17:                                               ; preds = %2
  %18 = load i32, ptr %5, align 4, !tbaa !14
  %19 = icmp eq i32 %18, 1
  %20 = select i1 %19, i32 65, i32 97
  %21 = trunc i32 %20 to i8
  store i8 %21, ptr %3, align 1
  br label %47

22:                                               ; preds = %2
  %23 = load i32, ptr %5, align 4, !tbaa !14
  %24 = icmp eq i32 %23, 1
  %25 = select i1 %24, i32 66, i32 98
  %26 = trunc i32 %25 to i8
  store i8 %26, ptr %3, align 1
  br label %47

27:                                               ; preds = %2
  %28 = load i32, ptr %5, align 4, !tbaa !14
  %29 = icmp eq i32 %28, 1
  %30 = select i1 %29, i32 67, i32 99
  %31 = trunc i32 %30 to i8
  store i8 %31, ptr %3, align 1
  br label %47

32:                                               ; preds = %2
  %33 = load i32, ptr %5, align 4, !tbaa !14
  %34 = icmp eq i32 %33, 1
  %35 = select i1 %34, i32 68, i32 100
  %36 = trunc i32 %35 to i8
  store i8 %36, ptr %3, align 1
  br label %47

37:                                               ; preds = %2
  %38 = load i32, ptr %5, align 4, !tbaa !14
  %39 = icmp eq i32 %38, 1
  %40 = select i1 %39, i32 69, i32 101
  %41 = trunc i32 %40 to i8
  store i8 %41, ptr %3, align 1
  br label %47

42:                                               ; preds = %2
  %43 = load i32, ptr %5, align 4, !tbaa !14
  %44 = icmp eq i32 %43, 1
  %45 = select i1 %44, i32 70, i32 102
  %46 = trunc i32 %45 to i8
  store i8 %46, ptr %3, align 1
  br label %47

47:                                               ; preds = %42, %37, %32, %27, %22, %17, %16, %15, %14, %13, %12, %11, %10, %9, %8, %7
  %48 = load i8, ptr %3, align 1
  ret i8 %48
}

; Function Attrs: nounwind uwtable
define signext i8 @uriHexToLetterA(i32 noundef %0) #0 {
  %2 = alloca i32, align 4
  store i32 %0, ptr %2, align 4, !tbaa !14
  %3 = load i32, ptr %2, align 4, !tbaa !14
  %4 = call signext i8 @uriHexToLetterExA(i32 noundef %3, i32 noundef 1)
  ret i8 %4
}