; Function Attrs: mustprogress nofree norecurse nosync nounwind willreturn memory(none) uwtable
define signext range(i8 48, 71) i8 @uriHexToLetterA(i32 noundef %0) local_unnamed_addr #6 {
  %2 = icmp ult i32 %0, 15
  br i1 %2, label %switch.lookup, label %uriHexToLetterExA.exit

switch.lookup:                                    ; preds = %1
  %3 = zext nneg i32 %0 to i64
  %switch.gep = getelementptr inbounds nuw [15 x i8], ptr @switch.table.uriHexToLetterA, i64 0, i64 %3
  %switch.load = load i8, ptr %switch.gep, align 1
  br label %uriHexToLetterExA.exit

uriHexToLetterExA.exit:                           ; preds = %1, %switch.lookup
  %.0.i = phi i8 [ %switch.load, %switch.lookup ], [ 70, %1 ]
  ret i8 %.0.i
}